; Function Attrs: mustprogress nounwind uwtable
define hidden void @_ZN13LIR_Assembler8throw_opE7LIR_OprS0_P12CodeEmitInfo(ptr noundef nonnull align 8 dereferenceable(96) %0, i64 %1, i64 %2, ptr noundef nonnull %3) local_unnamed_addr #0 align 2 {
  %5 = alloca %class.LIR_Opr, align 8
  %6 = alloca %class.InternalAddress, align 8
  %7 = alloca %class.AddressLiteral, align 8
  %8 = alloca %class.AddressLiteral, align 8
  %9 = alloca %class.RuntimeAddress, align 8
  store i64 %1, ptr %5, align 8
  tail call void @_ZN12CodeEmitInfo16add_register_oopE7LIR_Opr(ptr noundef nonnull align 8 dereferenceable(43) %3, i64 %2) #15
  %10 = load ptr, ptr %0, align 8
  %11 = getelementptr inbounds i8, ptr %10, i64 8
  %12 = load ptr, ptr %11, align 8
  %13 = getelementptr inbounds i8, ptr %12, i64 16
  %14 = load ptr, ptr %13, align 8
  %15 = load ptr, ptr %12, align 8
  %16 = ptrtoint ptr %14 to i64
  %17 = ptrtoint ptr %15 to i64
  %18 = sub i64 %16, %17
  %19 = trunc i64 %18 to i32
  call void @_ZN14AddressLiteralC2EPhN9relocInfo9relocTypeE(ptr noundef nonnull align 8 dereferenceable(56) %6, ptr noundef %14, i32 noundef 8) #15
  %20 = load ptr, ptr %0, align 8
  %21 = call i32 @_ZNK7LIR_Opr11as_registerEv(ptr noundef nonnull align 8 dereferenceable(8) %5) #15
  %22 = load ptr, ptr %6, align 8
  %23 = getelementptr inbounds i8, ptr %22, i64 16
  %24 = load ptr, ptr %23, align 8
  call void %24(ptr noundef nonnull align 8 dereferenceable(20) %6, ptr noundef nonnull align 8 dereferenceable(40) %7) #15
  %25 = getelementptr inbounds i8, ptr %7, i64 40
  %26 = getelementptr inbounds i8, ptr %6, i64 40
  call void @llvm.memcpy.p0.p0.i64(ptr noundef nonnull align 8 dereferenceable(16) %25, ptr noundef nonnull align 8 dereferenceable(16) %26, i64 16, i1 false)
  call void @_ZN14MacroAssembler3leaE8Register14AddressLiteral(ptr noundef nonnull align 8 dereferenceable(40) %20, i32 %21, ptr noundef nonnull %7) #15
  call void @_ZN13LIR_Assembler13add_call_infoEiP12CodeEmitInfo(ptr noundef nonnull align 8 dereferenceable(96) %0, i32 noundef %19, ptr noundef nonnull %3) #15
  %27 = getelementptr inbounds i8, ptr %0, i64 16
  %28 = load ptr, ptr %27, align 8
  %29 = getelementptr inbounds i8, ptr %28, i64 97
  %30 = load i8, ptr %29, align 1
  %31 = trunc i8 %30 to i1
  %. = select i1 %31, i32 15, i32 14
  %32 = load ptr, ptr %0, align 8
  %33 = call noundef ptr @_ZN8Runtime18blob_forENS_6StubIDE(i32 noundef %.) #15
  %34 = getelementptr inbounds i8, ptr %33, i64 36
  %35 = load i32, ptr %34, align 4
  %36 = sext i32 %35 to i64
  %37 = getelementptr inbounds i8, ptr %33, i64 %36
  call void @_ZN14AddressLiteralC2EPhN9relocInfo9relocTypeE(ptr noundef nonnull align 8 dereferenceable(56) %9, ptr noundef %37, i32 noundef 6) #15
  %38 = load ptr, ptr %9, align 8
  %39 = getelementptr inbounds i8, ptr %38, i64 16
  %40 = load ptr, ptr %39, align 8
  call void %40(ptr noundef nonnull align 8 dereferenceable(20) %9, ptr noundef nonnull align 8 dereferenceable(40) %8) #15
  %41 = getelementptr inbounds i8, ptr %8, i64 40
  %42 = getelementptr inbounds i8, ptr %9, i64 40
  call void @llvm.memcpy.p0.p0.i64(ptr noundef nonnull align 8 dereferenceable(16) %41, ptr noundef nonnull align 8 dereferenceable(16) %42, i64 16, i1 false)
  call void @_ZN14MacroAssembler4callE14AddressLiteral8Register(ptr noundef nonnull align 8 dereferenceable(40) %32, ptr noundef nonnull %8, i32 0) #15
  %43 = load ptr, ptr %0, align 8
  call void @_ZN9Assembler3nopEj(ptr noundef nonnull align 8 dereferenceable(40) %43, i32 noundef 1) #15
  ret void
}